target datalayout = "e-m:e-p270:32:32-p271:32:32-p272:64:64-i64:64-i128:128-f80:128-n8:16:32:64-S128"
target triple = "x86_64-pc-linux-gnu"

%struct.cli_hashtable = type { ptr, i64, i64, i64 }
%struct.cli_element = type { ptr, i64, i64 }

@DELETED_KEY = internal constant [1 x i8] zeroinitializer, align 1
@.str = private unnamed_addr constant [80 x i8] c"hashtab.c:Growing hashtable %p, because it has exceeded maxfill, old size: %zu\0A\00", align 1
@.str.1 = private unnamed_addr constant [49 x i8] c"hashtab.c: Unable to allocate memory for thekey\0A\00", align 1
@.str.2 = private unnamed_addr constant [68 x i8] c"hashtab.c: Growing hashtable %p, because it's full, old size: %zu.\0A\00", align 1
@.str.3 = private unnamed_addr constant [37 x i8] c"hashtab.c: Unable to grow hashtable\0A\00", align 1

; Function Attrs: nounwind uwtable
define internal i32 @hash32shift(i32 noundef %0) #0 {
  %2 = alloca i32, align 4
  store i32 %0, ptr %2, align 4
  %3 = load i32, ptr %2, align 4
  %4 = xor i32 %3, -1
  %5 = load i32, ptr %2, align 4
  %6 = shl i32 %5, 15
  %7 = add i32 %4, %6
  store i32 %7, ptr %2, align 4
  %8 = load i32, ptr %2, align 4
  %9 = load i32, ptr %2, align 4
  %10 = lshr i32 %9, 12
  %11 = xor i32 %8, %10
  store i32 %11, ptr %2, align 4
  %12 = load i32, ptr %2, align 4
  %13 = load i32, ptr %2, align 4
  %14 = shl i32 %13, 2
  %15 = add i32 %12, %14
  store i32 %15, ptr %2, align 4
  %16 = load i32, ptr %2, align 4
  %17 = load i32, ptr %2, align 4
  %18 = lshr i32 %17, 4
  %19 = xor i32 %16, %18
  store i32 %19, ptr %2, align 4
  %20 = load i32, ptr %2, align 4
  %21 = load i32, ptr %2, align 4
  %22 = shl i32 %21, 3
  %23 = add i32 %20, %22
  %24 = load i32, ptr %2, align 4
  %25 = shl i32 %24, 11
  %26 = add i32 %23, %25
  store i32 %26, ptr %2, align 4
  %27 = load i32, ptr %2, align 4
  %28 = load i32, ptr %2, align 4
  %29 = lshr i32 %28, 16
  %30 = xor i32 %27, %29
  store i32 %30, ptr %2, align 4
  %31 = load i32, ptr %2, align 4
  ret i32 %31
}

; Function Attrs: nounwind uwtable
define internal i64 @hash(ptr noundef %0, i64 noundef %1, i64 noundef %2) #0 {
  %4 = alloca ptr, align 8
  %5 = alloca i64, align 8
  %6 = alloca i64, align 8
  %7 = alloca i64, align 8
  %8 = alloca i64, align 8
  store ptr %0, ptr %4, align 8
  store i64 %1, ptr %5, align 8
  store i64 %2, ptr %6, align 8
  store i64 1, ptr %7, align 8
  store i64 0, ptr %8, align 8
  br label %9

9:                                                ; preds = %25, %3
  %10 = load i64, ptr %8, align 8
  %11 = load i64, ptr %5, align 8
  %12 = icmp ult i64 %10, %11
  br i1 %12, label %13, label %28

13:                                               ; preds = %9
  %14 = load ptr, ptr %4, align 8
  %15 = load i64, ptr %8, align 8
  %16 = getelementptr inbounds i8, ptr %14, i64 %15
  %17 = load i8, ptr %16, align 1
  %18 = zext i8 %17 to i64
  %19 = load i64, ptr %7, align 8
  %20 = add i64 %19, %18
  store i64 %20, ptr %7, align 8
  %21 = load i64, ptr %7, align 8
  %22 = trunc i64 %21 to i32
  %23 = call i32 @hash32shift(i32 noundef %22)
  %24 = zext i32 %23 to i64
  store i64 %24, ptr %7, align 8
  br label %25

25:                                               ; preds = %13
  %26 = load i64, ptr %8, align 8
  %27 = add i64 %26, 1
  store i64 %27, ptr %8, align 8
  br label %9

28:                                               ; preds = %9
  %29 = load i64, ptr %7, align 8
  %30 = load i64, ptr %6, align 8
  %31 = sub i64 %30, 1
  %32 = and i64 %29, %31
  ret i64 %32
}

; Function Attrs: nounwind uwtable
define ptr @cli_hashtab_insert(ptr noundef %0, ptr noundef %1, i64 noundef %2, i64 noundef %3) #0 {
  %5 = alloca ptr, align 8
  %6 = alloca ptr, align 8
  %7 = alloca ptr, align 8
  %8 = alloca i64, align 8
  %9 = alloca i64, align 8
  %10 = alloca ptr, align 8
  %11 = alloca ptr, align 8
  %12 = alloca i64, align 8
  %13 = alloca i64, align 8
  %14 = alloca ptr, align 8
  store ptr %0, ptr %6, align 8
  store ptr %1, ptr %7, align 8
  store i64 %2, ptr %8, align 8
  store i64 %3, ptr %9, align 8
  store ptr null, ptr %11, align 8
  store i64 1, ptr %12, align 8
  %15 = load ptr, ptr %6, align 8
  %16 = icmp ne ptr %15, null
  br i1 %16, label %18, label %17

17:                                               ; preds = %4
  store ptr null, ptr %5, align 8
  br label %148

18:                                               ; preds = %4
  %19 = load ptr, ptr %6, align 8
  %20 = getelementptr inbounds %struct.cli_hashtable, ptr %19, i32 0, i32 2
  %21 = load i64, ptr %20, align 8
  %22 = load ptr, ptr %6, align 8
  %23 = getelementptr inbounds %struct.cli_hashtable, ptr %22, i32 0, i32 3
  %24 = load i64, ptr %23, align 8
  %25 = icmp ugt i64 %21, %24
  br i1 %25, label %26, label %33

26:                                               ; preds = %18
  %27 = load ptr, ptr %6, align 8
  %28 = load ptr, ptr %6, align 8
  %29 = getelementptr inbounds %struct.cli_hashtable, ptr %28, i32 0, i32 1
  %30 = load i64, ptr %29, align 8
  call void (ptr, ...) @cli_dbgmsg(ptr noundef @.str, ptr noundef %27, i64 noundef %30)
  %31 = load ptr, ptr %6, align 8
  %32 = call i32 @cli_hashtab_grow(ptr noundef %31)
  br label %33

33:                                               ; preds = %26, %18
  br label %34

34:                                               ; preds = %143, %33
  %35 = load ptr, ptr %7, align 8
  %36 = load i64, ptr %8, align 8
  %37 = load ptr, ptr %6, align 8
  %38 = getelementptr inbounds %struct.cli_hashtable, ptr %37, i32 0, i32 1
  %39 = load i64, ptr %38, align 8
  %40 = call i64 @hash(ptr noundef %35, i64 noundef %36, i64 noundef %39)
  store i64 %40, ptr %13, align 8
  %41 = load ptr, ptr %6, align 8
  %42 = getelementptr inbounds %struct.cli_hashtable, ptr %41, i32 0, i32 0
  %43 = load ptr, ptr %42, align 8
  %44 = load i64, ptr %13, align 8
  %45 = getelementptr inbounds %struct.cli_element, ptr %43, i64 %44
  store ptr %45, ptr %10, align 8
  br label %46

46:                                               ; preds = %132, %34
  %47 = load ptr, ptr %10, align 8
  %48 = getelementptr inbounds %struct.cli_element, ptr %47, i32 0, i32 0
  %49 = load ptr, ptr %48, align 8
  %50 = icmp ne ptr %49, null
  br i1 %50, label %87, label %51

51:                                               ; preds = %46
  %52 = load ptr, ptr %11, align 8
  %53 = icmp ne ptr %52, null
  br i1 %53, label %54, label %56

54:                                               ; preds = %51
  %55 = load ptr, ptr %11, align 8
  store ptr %55, ptr %10, align 8
  br label %57

56:                                               ; preds = %51
  br label %57

57:                                               ; preds = %56, %54
  %58 = load i64, ptr %8, align 8
  %59 = add i64 %58, 1
  %60 = call ptr @cli_max_malloc(i64 noundef %59)
  store ptr %60, ptr %14, align 8
  %61 = load ptr, ptr %14, align 8
  %62 = icmp ne ptr %61, null
  br i1 %62, label %64, label %63

63:                                               ; preds = %57
  call void (ptr, ...) @cli_errmsg(ptr noundef @.str.1)
  store ptr null, ptr %5, align 8
  br label %148

64:                                               ; preds = %57
  %65 = load ptr, ptr %14, align 8
  %66 = load ptr, ptr %7, align 8
  %67 = load i64, ptr %8, align 8
  %68 = add i64 %67, 1
  %69 = call ptr @strncpy(ptr noundef %65, ptr noundef %66, i64 noundef %68) #7
  %70 = load ptr, ptr %14, align 8
  %71 = load i64, ptr %8, align 8
  %72 = getelementptr inbounds i8, ptr %70, i64 %71
  store i8 0, ptr %72, align 1
  %73 = load ptr, ptr %14, align 8
  %74 = load ptr, ptr %10, align 8
  %75 = getelementptr inbounds %struct.cli_element, ptr %74, i32 0, i32 0
  store ptr %73, ptr %75, align 8
  %76 = load i64, ptr %9, align 8
  %77 = load ptr, ptr %10, align 8
  %78 = getelementptr inbounds %struct.cli_element, ptr %77, i32 0, i32 1
  store i64 %76, ptr %78, align 8
  %79 = load i64, ptr %8, align 8
  %80 = load ptr, ptr %10, align 8
  %81 = getelementptr inbounds %struct.cli_element, ptr %80, i32 0, i32 2
  store i64 %79, ptr %81, align 8
  %82 = load ptr, ptr %6, align 8
  %83 = getelementptr inbounds %struct.cli_hashtable, ptr %82, i32 0, i32 2
  %84 = load i64, ptr %83, align 8
  %85 = add i64 %84, 1
  store i64 %85, ptr %83, align 8
  %86 = load ptr, ptr %10, align 8
  store ptr %86, ptr %5, align 8
  br label %148

87:                                               ; preds = %46
  %88 = load ptr, ptr %10, align 8
  %89 = getelementptr inbounds %struct.cli_element, ptr %88, i32 0, i32 0
  %90 = load ptr, ptr %89, align 8
  %91 = icmp eq ptr %90, @DELETED_KEY
  br i1 %91, label %92, label %96

92:                                               ; preds = %87
  %93 = load ptr, ptr %10, align 8
  store ptr %93, ptr %11, align 8
  %94 = load ptr, ptr %10, align 8
  %95 = getelementptr inbounds %struct.cli_element, ptr %94, i32 0, i32 0
  store ptr null, ptr %95, align 8
  br label %130

96:                                               ; preds = %87
  %97 = load i64, ptr %8, align 8
  %98 = load ptr, ptr %10, align 8
  %99 = getelementptr inbounds %struct.cli_element, ptr %98, i32 0, i32 2
  %100 = load i64, ptr %99, align 8
  %101 = icmp eq i64 %97, %100
  br i1 %101, label %102, label %115

102:                                              ; preds = %96
  %103 = load ptr, ptr %7, align 8
  %104 = load ptr, ptr %10, align 8
  %105 = getelementptr inbounds %struct.cli_element, ptr %104, i32 0, i32 0
  %106 = load ptr, ptr %105, align 8
  %107 = load i64, ptr %8, align 8
  %108 = call i32 @strncmp(ptr noundef %103, ptr noundef %106, i64 noundef %107) #6
  %109 = icmp eq i32 %108, 0
  br i1 %109, label %110, label %115

110:                                              ; preds = %102
  %111 = load i64, ptr %9, align 8
  %112 = load ptr, ptr %10, align 8
  %113 = getelementptr inbounds %struct.cli_element, ptr %112, i32 0, i32 1
  store i64 %111, ptr %113, align 8
  %114 = load ptr, ptr %10, align 8
  store ptr %114, ptr %5, align 8
  br label %148

115:                                              ; preds = %102, %96
  %116 = load i64, ptr %13, align 8
  %117 = load i64, ptr %12, align 8
  %118 = add i64 %117, 1
  store i64 %118, ptr %12, align 8
  %119 = add i64 %116, %117
  %120 = load ptr, ptr %6, align 8
  %121 = getelementptr inbounds %struct.cli_hashtable, ptr %120, i32 0, i32 1
  %122 = load i64, ptr %121, align 8
  %123 = urem i64 %119, %122
  store i64 %123, ptr %13, align 8
  %124 = load ptr, ptr %6, align 8
  %125 = getelementptr inbounds %struct.cli_hashtable, ptr %124, i32 0, i32 0
  %126 = load ptr, ptr %125, align 8
  %127 = load i64, ptr %13, align 8
  %128 = getelementptr inbounds %struct.cli_element, ptr %126, i64 %127
  store ptr %128, ptr %10, align 8
  br label %129

129:                                              ; preds = %115
  br label %130

130:                                              ; preds = %129, %92
  br label %131

131:                                              ; preds = %130
  br label %132

132:                                              ; preds = %131
  %133 = load i64, ptr %12, align 8
  %134 = load ptr, ptr %6, align 8
  %135 = getelementptr inbounds %struct.cli_hashtable, ptr %134, i32 0, i32 1
  %136 = load i64, ptr %135, align 8
  %137 = icmp ule i64 %133, %136
  br i1 %137, label %46, label %138

138:                                              ; preds = %132
  %139 = load ptr, ptr %6, align 8
  %140 = load ptr, ptr %6, align 8
  %141 = getelementptr inbounds %struct.cli_hashtable, ptr %140, i32 0, i32 1
  %142 = load i64, ptr %141, align 8
  call void (ptr, ...) @cli_dbgmsg(ptr noundef @.str.2, ptr noundef %139, i64 noundef %142)
  br label %143

143:                                              ; preds = %138
  %144 = load ptr, ptr %6, align 8
  %145 = call i32 @cli_hashtab_grow(ptr noundef %144)
  %146 = icmp uge i32 %145, 0
  br i1 %146, label %34, label %147

147:                                              ; preds = %143
  call void (ptr, ...) @cli_warnmsg(ptr noundef @.str.3)
  store ptr null, ptr %5, align 8
  br label %148

148:                                              ; preds = %147, %110, %64, %63, %17
  %149 = load ptr, ptr %5, align 8
  ret ptr %149
}