; Function Attrs: nounwind uwtable
define noundef ptr @cli_hashtab_insert(ptr noundef %0, ptr nocapture noundef readonly %1, i64 noundef %2, i64 noundef %3) local_unnamed_addr #0 {
  %.not = icmp eq ptr %0, null
  br i1 %.not, label %95, label %5

5:                                                ; preds = %4
  %6 = getelementptr inbounds i8, ptr %0, i64 16
  %7 = load i64, ptr %6, align 8
  %8 = getelementptr inbounds i8, ptr %0, i64 24
  %9 = load i64, ptr %8, align 8
  %10 = icmp ugt i64 %7, %9
  br i1 %10, label %11, label %14

11:                                               ; preds = %5
  %12 = getelementptr inbounds i8, ptr %0, i64 8
  %13 = load i64, ptr %12, align 8
  tail call void (ptr, ...) @cli_dbgmsg(ptr noundef nonnull @.str, ptr noundef nonnull %0, i64 noundef %13) #18
  tail call fastcc void @cli_hashtab_grow(ptr noundef nonnull %0)
  br label %14

14:                                               ; preds = %11, %5
  %15 = getelementptr inbounds i8, ptr %0, i64 8
  %.not.i = icmp eq i64 %2, 0
  br i1 %.not.i, label %hash.exit.us, label %.lr.ph.i.preheader

hash.exit.us:                                     ; preds = %14, %39
  %.053.us = phi ptr [ %.255.us, %39 ], [ null, %14 ]
  %.051.us = phi i64 [ %.2.us, %39 ], [ 1, %14 ]
  %16 = load i64, ptr %15, align 8
  %17 = and i64 %16, 1
  %18 = xor i64 %17, 1
  %19 = load ptr, ptr %0, align 8
  %20 = getelementptr inbounds %struct.cli_element, ptr %19, i64 %18
  br label %21

21:                                               ; preds = %37, %hash.exit.us
  %22 = phi i64 [ %16, %hash.exit.us ], [ %38, %37 ]
  %.056.us = phi ptr [ %20, %hash.exit.us ], [ %.258.us, %37 ]
  %.154.us = phi ptr [ %.053.us, %hash.exit.us ], [ %.255.us, %37 ]
  %.152.us = phi i64 [ %.051.us, %hash.exit.us ], [ %.2.us, %37 ]
  %.050.us = phi i64 [ %18, %hash.exit.us ], [ %.1.us, %37 ]
  %23 = load ptr, ptr %.056.us, align 8
  %.not64.us = icmp eq ptr %23, null
  br i1 %.not64.us, label %.split74.us, label %24

24:                                               ; preds = %21
  %25 = icmp eq ptr %23, @DELETED_KEY
  br i1 %25, label %36, label %26

26:                                               ; preds = %24
  %27 = getelementptr inbounds i8, ptr %.056.us, i64 16
  %28 = load i64, ptr %27, align 8
  %29 = icmp eq i64 %28, 0
  br i1 %29, label %.split77.us, label %30

30:                                               ; preds = %26
  %31 = add i64 %.152.us, 1
  %32 = add i64 %.050.us, %.152.us
  %33 = urem i64 %32, %22
  %34 = load ptr, ptr %0, align 8
  %35 = getelementptr inbounds %struct.cli_element, ptr %34, i64 %33
  br label %37

36:                                               ; preds = %24
  store ptr null, ptr %.056.us, align 8
  %.pre91 = load i64, ptr %15, align 8
  br label %37

37:                                               ; preds = %36, %30
  %38 = phi i64 [ %.pre91, %36 ], [ %22, %30 ]
  %.258.us = phi ptr [ %.056.us, %36 ], [ %35, %30 ]
  %.255.us = phi ptr [ %.056.us, %36 ], [ %.154.us, %30 ]
  %.2.us = phi i64 [ %.152.us, %36 ], [ %31, %30 ]
  %.1.us = phi i64 [ %.050.us, %36 ], [ %33, %30 ]
  %.not67.us = icmp ugt i64 %.2.us, %38
  br i1 %.not67.us, label %39, label %21

39:                                               ; preds = %37
  tail call void (ptr, ...) @cli_dbgmsg(ptr noundef nonnull @.str.2, ptr noundef nonnull %0, i64 noundef %38) #18
  tail call fastcc void @cli_hashtab_grow(ptr noundef nonnull %0)
  br label %hash.exit.us

.lr.ph.i.preheader:                               ; preds = %14, %94
  %.053 = phi ptr [ %.255, %94 ], [ null, %14 ]
  %.051 = phi i64 [ %.2, %94 ], [ 1, %14 ]
  %40 = load i64, ptr %15, align 8
  br label %.lr.ph.i

.lr.ph.i:                                         ; preds = %.lr.ph.i.preheader, %.lr.ph.i
  %.010.i = phi i64 [ %56, %.lr.ph.i ], [ 0, %.lr.ph.i.preheader ]
  %.089.i = phi i32 [ %55, %.lr.ph.i ], [ 1, %.lr.ph.i.preheader ]
  %41 = getelementptr inbounds i8, ptr %1, i64 %.010.i
  %42 = load i8, ptr %41, align 1
  %43 = zext i8 %42 to i32
  %44 = add i32 %.089.i, %43
  %45 = xor i32 %44, -1
  %46 = shl i32 %44, 15
  %47 = add i32 %46, %45
  %48 = lshr i32 %47, 12
  %49 = xor i32 %48, %47
  %50 = mul i32 %49, 5
  %51 = lshr i32 %50, 4
  %52 = xor i32 %51, %50
  %53 = mul i32 %52, 2057
  %54 = lshr i32 %53, 16
  %55 = xor i32 %54, %53
  %56 = add nuw i64 %.010.i, 1
  %exitcond.not.i = icmp eq i64 %56, %2
  br i1 %exitcond.not.i, label %._crit_edge.loopexit.i, label %.lr.ph.i

._crit_edge.loopexit.i:                           ; preds = %.lr.ph.i
  %57 = zext i32 %55 to i64
  %58 = add i64 %40, 4294967295
  %59 = and i64 %58, %57
  %60 = load ptr, ptr %0, align 8
  %61 = getelementptr inbounds %struct.cli_element, ptr %60, i64 %59
  br label %62

62:                                               ; preds = %92, %._crit_edge.loopexit.i
  %63 = phi i64 [ %40, %._crit_edge.loopexit.i ], [ %93, %92 ]
  %.056 = phi ptr [ %61, %._crit_edge.loopexit.i ], [ %.258, %92 ]
  %.154 = phi ptr [ %.053, %._crit_edge.loopexit.i ], [ %.255, %92 ]
  %.152 = phi i64 [ %.051, %._crit_edge.loopexit.i ], [ %.2, %92 ]
  %.050 = phi i64 [ %59, %._crit_edge.loopexit.i ], [ %.1, %92 ]
  %64 = load ptr, ptr %.056, align 8
  %.not64 = icmp eq ptr %64, null
  br i1 %.not64, label %.split74.us, label %75

.split74.us:                                      ; preds = %62, %21
  %.us-phi = phi ptr [ %.056.us, %21 ], [ %.056, %62 ]
  %.us-phi75 = phi ptr [ %.154.us, %21 ], [ %.154, %62 ]
  %65 = add i64 %2, 1
  %66 = tail call ptr @cli_max_malloc(i64 noundef %65) #18
  %.not66 = icmp eq ptr %66, null
  br i1 %.not66, label %67, label %68

67:                                               ; preds = %.split74.us
  tail call void (ptr, ...) @cli_errmsg(ptr noundef nonnull @.str.1) #18
  br label %95

68:                                               ; preds = %.split74.us
  %.not65 = icmp eq ptr %.us-phi75, null
  %spec.select = select i1 %.not65, ptr %.us-phi, ptr %.us-phi75
  %69 = tail call ptr @strncpy(ptr noundef nonnull %66, ptr noundef %1, i64 noundef %65) #18
  %70 = getelementptr inbounds i8, ptr %66, i64 %2
  store i8 0, ptr %70, align 1
  store ptr %66, ptr %spec.select, align 8
  %71 = getelementptr inbounds i8, ptr %spec.select, i64 8
  store i64 %3, ptr %71, align 8
  %72 = getelementptr inbounds i8, ptr %spec.select, i64 16
  store i64 %2, ptr %72, align 8
  %73 = load i64, ptr %6, align 8
  %74 = add i64 %73, 1
  store i64 %74, ptr %6, align 8
  br label %95

75:                                               ; preds = %62
  %76 = icmp eq ptr %64, @DELETED_KEY
  br i1 %76, label %77, label %78

77:                                               ; preds = %75
  store ptr null, ptr %.056, align 8
  %.pre = load i64, ptr %15, align 8
  br label %92

78:                                               ; preds = %75
  %79 = getelementptr inbounds i8, ptr %.056, i64 16
  %80 = load i64, ptr %79, align 8
  %81 = icmp eq i64 %80, %2
  br i1 %81, label %82, label %86

82:                                               ; preds = %78
  %83 = tail call i32 @strncmp(ptr noundef %1, ptr noundef nonnull %64, i64 noundef %2) #19
  %84 = icmp eq i32 %83, 0
  br i1 %84, label %.split77.us, label %86

.split77.us:                                      ; preds = %82, %26
  %.us-phi78 = phi ptr [ %.056.us, %26 ], [ %.056, %82 ]
  %85 = getelementptr inbounds i8, ptr %.us-phi78, i64 8
  store i64 %3, ptr %85, align 8
  br label %95

86:                                               ; preds = %82, %78
  %87 = add i64 %.152, 1
  %88 = add i64 %.050, %.152
  %89 = urem i64 %88, %63
  %90 = load ptr, ptr %0, align 8
  %91 = getelementptr inbounds %struct.cli_element, ptr %90, i64 %89
  br label %92

92:                                               ; preds = %86, %77
  %93 = phi i64 [ %.pre, %77 ], [ %63, %86 ]
  %.258 = phi ptr [ %.056, %77 ], [ %91, %86 ]
  %.255 = phi ptr [ %.056, %77 ], [ %.154, %86 ]
  %.2 = phi i64 [ %.152, %77 ], [ %87, %86 ]
  %.1 = phi i64 [ %.050, %77 ], [ %89, %86 ]
  %.not67 = icmp ugt i64 %.2, %93
  br i1 %.not67, label %94, label %62

94:                                               ; preds = %92
  tail call void (ptr, ...) @cli_dbgmsg(ptr noundef nonnull @.str.2, ptr noundef nonnull %0, i64 noundef %93) #18
  tail call fastcc void @cli_hashtab_grow(ptr noundef nonnull %0)
  br label %.lr.ph.i.preheader

95:                                               ; preds = %4, %.split77.us, %68, %67
  %.0 = phi ptr [ %.us-phi78, %.split77.us ], [ %spec.select, %68 ], [ null, %67 ], [ null, %4 ]
  ret ptr %.0
}